target datalayout = "e-m:e-p270:32:32-p271:32:32-p272:64:64-i64:64-i128:128-f80:128-n8:16:32:64-S128"
target triple = "x86_64-pc-linux-gnu"

; Function Attrs: nounwind uwtable
define internal void @permutate_in_line(ptr noundef %0, i32 noundef %1, i32 noundef %2, i32 noundef %3, ptr noundef %4, i32 noundef %5, i32 noundef %6) #0 {
  %8 = alloca ptr, align 8
  %9 = alloca i32, align 4
  %10 = alloca i32, align 4
  %11 = alloca i32, align 4
  %12 = alloca ptr, align 8
  %13 = alloca i32, align 4
  %14 = alloca i32, align 4
  %15 = alloca i32, align 4
  %16 = alloca i32, align 4
  %17 = alloca i32, align 4
  store ptr %0, ptr %8, align 8, !tbaa !125
  store i32 %1, ptr %9, align 4, !tbaa !25
  store i32 %2, ptr %10, align 4, !tbaa !25
  store i32 %3, ptr %11, align 4, !tbaa !25
  store ptr %4, ptr %12, align 8, !tbaa !23
  store i32 %5, ptr %13, align 4, !tbaa !25
  store i32 %6, ptr %14, align 4, !tbaa !25
  call void @llvm.lifetime.start.p0(i64 4, ptr %15) #8
  call void @llvm.lifetime.start.p0(i64 4, ptr %16) #8
  store i32 0, ptr %15, align 4, !tbaa !25
  br label %18

18:                                               ; preds = %101, %7
  %19 = load i32, ptr %15, align 4, !tbaa !25
  %20 = load ptr, ptr %12, align 8, !tbaa !23
  %21 = getelementptr inbounds i8, ptr %20, i64 0
  %22 = load i8, ptr %21, align 1, !tbaa !84
  %23 = zext i8 %22 to i32
  %24 = icmp slt i32 %19, %23
  br i1 %24, label %25, label %104

25:                                               ; preds = %18
  call void @llvm.lifetime.start.p0(i64 4, ptr %17) #8
  %26 = load i32, ptr %10, align 4, !tbaa !25
  %27 = icmp eq i32 %26, 1
  br i1 %27, label %50, label %28

28:                                               ; preds = %25
  %29 = load i32, ptr %14, align 4, !tbaa !25
  %30 = icmp eq i32 %29, 2
  br i1 %30, label %31, label %36

31:                                               ; preds = %28
  %32 = load i32, ptr %9, align 4, !tbaa !25
  %33 = load i32, ptr %10, align 4, !tbaa !25
  %34 = srem i32 %32, %33
  %35 = icmp ne i32 %34, 0
  br i1 %35, label %50, label %36

36:                                               ; preds = %31, %28
  %37 = load i32, ptr %14, align 4, !tbaa !25
  %38 = icmp ne i32 %37, 2
  br i1 %38, label %39, label %43

39:                                               ; preds = %36
  %40 = load i32, ptr %9, align 4, !tbaa !25
  %41 = and i32 %40, 1
  %42 = icmp ne i32 %41, 0
  br i1 %42, label %50, label %43

43:                                               ; preds = %39, %36
  %44 = load i32, ptr %15, align 4, !tbaa !25
  %45 = load ptr, ptr %12, align 8, !tbaa !23
  %46 = getelementptr inbounds i8, ptr %45, i64 1
  %47 = load i8, ptr %46, align 1, !tbaa !84
  %48 = zext i8 %47 to i32
  %49 = icmp eq i32 %44, %48
  br i1 %49, label %50, label %51

50:                                               ; preds = %43, %39, %31, %25
  store i32 0, ptr %17, align 4, !tbaa !25
  br label %61

51:                                               ; preds = %43
  %52 = load i32, ptr %14, align 4, !tbaa !25
  %53 = icmp eq i32 %52, 2
  br i1 %53, label %54, label %56

54:                                               ; preds = %51
  %55 = load i32, ptr %15, align 4, !tbaa !25
  store i32 %55, ptr %17, align 4, !tbaa !25
  br label %60

56:                                               ; preds = %51
  %57 = load i32, ptr %15, align 4, !tbaa !25
  %58 = load i32, ptr %15, align 4, !tbaa !25
  %59 = mul nsw i32 %57, %58
  store i32 %59, ptr %17, align 4, !tbaa !25
  br label %60

60:                                               ; preds = %56, %54
  br label %61

61:                                               ; preds = %60, %50
  store i32 0, ptr %16, align 4, !tbaa !25
  br label %62

62:                                               ; preds = %97, %61
  %63 = load i32, ptr %16, align 4, !tbaa !25
  %64 = load i32, ptr %9, align 4, !tbaa !25
  %65 = icmp slt i32 %63, %64
  br i1 %65, label %66, label %76

66:                                               ; preds = %62
  %67 = load i32, ptr %16, align 4, !tbaa !25
  %68 = load i32, ptr %9, align 4, !tbaa !25
  %69 = load i32, ptr %15, align 4, !tbaa !25
  %70 = mul nsw i32 %68, %69
  %71 = add nsw i32 %67, %70
  %72 = load i32, ptr %11, align 4, !tbaa !25
  %73 = load i32, ptr %10, align 4, !tbaa !25
  %74 = mul nsw i32 %72, %73
  %75 = icmp slt i32 %71, %74
  br label %76

76:                                               ; preds = %66, %62
  %77 = phi i1 [ false, %62 ], [ %75, %66 ]
  br i1 %77, label %78, label %100

78:                                               ; preds = %76
  %79 = load i32, ptr %15, align 4, !tbaa !25
  %80 = load i32, ptr %9, align 4, !tbaa !25
  %81 = mul nsw i32 %79, %80
  %82 = load i32, ptr %16, align 4, !tbaa !25
  %83 = load i32, ptr %17, align 4, !tbaa !25
  %84 = add nsw i32 %82, %83
  %85 = load i32, ptr %9, align 4, !tbaa !25
  %86 = srem i32 %84, %85
  %87 = add nsw i32 %81, %86
  %88 = trunc i32 %87 to i16
  %89 = load ptr, ptr %8, align 8, !tbaa !125
  %90 = load i32, ptr %15, align 4, !tbaa !25
  %91 = load i32, ptr %9, align 4, !tbaa !25
  %92 = mul nsw i32 %90, %91
  %93 = load i32, ptr %16, align 4, !tbaa !25
  %94 = add nsw i32 %92, %93
  %95 = sext i32 %94 to i64
  %96 = getelementptr inbounds i16, ptr %89, i64 %95
  store i16 %88, ptr %96, align 2, !tbaa !126
  br label %97

97:                                               ; preds = %78
  %98 = load i32, ptr %16, align 4, !tbaa !25
  %99 = add nsw i32 %98, 1
  store i32 %99, ptr %16, align 4, !tbaa !25
  br label %62, !llvm.loop !149

100:                                              ; preds = %76
  call void @llvm.lifetime.end.p0(i64 4, ptr %17) #8
  br label %101

101:                                              ; preds = %100
  %102 = load i32, ptr %15, align 4, !tbaa !25
  %103 = add nsw i32 %102, 1
  store i32 %103, ptr %15, align 4, !tbaa !25
  br label %18, !llvm.loop !150

104:                                              ; preds = %18
  call void @llvm.lifetime.end.p0(i64 4, ptr %16) #8
  call void @llvm.lifetime.end.p0(i64 4, ptr %15) #8
  ret void
}