; Function Attrs: nofree norecurse nosync nounwind memory(argmem: readwrite) uwtable
define internal fastcc void @permutate_in_line(ptr noundef writeonly captures(none) %0, i32 noundef %1, i32 noundef %2, i32 noundef range(i32 0, 65536) %3, ptr noundef readonly captures(none) %4, i32 noundef range(i32 0, 4) %5) unnamed_addr #8 {
  %7 = load i8, ptr %4, align 1, !tbaa !61
  %.not = icmp eq i8 %7, 0
  br i1 %.not, label %._crit_edge, label %.lr.ph43

.lr.ph43:                                         ; preds = %6
  %8 = icmp eq i32 %2, 1
  %9 = icmp eq i32 %5, 2
  %10 = and i32 %1, 1
  %.not37 = icmp eq i32 %10, 0
  %11 = getelementptr inbounds nuw i8, ptr %4, i64 1
  %12 = icmp sgt i32 %1, 0
  %13 = mul nsw i32 %3, %2
  br i1 %12, label %.lr.ph43.split.us.preheader, label %._crit_edge

.lr.ph43.split.us.preheader:                      ; preds = %.lr.ph43
  %14 = zext nneg i32 %1 to i64
  br label %.lr.ph43.split.us

.lr.ph43.split.us:                                ; preds = %.lr.ph43.split.us.preheader, %.critedge.us
  %indvars.iv59 = phi i64 [ 0, %.lr.ph43.split.us.preheader ], [ %indvars.iv.next60, %.critedge.us ]
  br i1 %8, label %.lr.ph.us, label %15

15:                                               ; preds = %.lr.ph43.split.us
  br i1 %9, label %17, label %16

16:                                               ; preds = %15
  br i1 %.not37, label %.thread.us, label %.lr.ph.us

17:                                               ; preds = %15
  %18 = srem i32 %1, %2
  %.not.us = icmp eq i32 %18, 0
  br i1 %.not.us, label %.thread.us, label %.lr.ph.us

.thread.us:                                       ; preds = %17, %16
  %19 = load i8, ptr %11, align 1, !tbaa !61
  %20 = zext i8 %19 to i64
  %21 = icmp eq i64 %indvars.iv59, %20
  br i1 %21, label %.lr.ph.us, label %22

22:                                               ; preds = %.thread.us
  %23 = select i1 %9, i64 1, i64 %indvars.iv59
  %spec.select.us = mul nuw nsw i64 %23, %indvars.iv59
  br label %.lr.ph.us

.lr.ph.us:                                        ; preds = %22, %.thread.us, %17, %16, %.lr.ph43.split.us
  %.0.us = phi i64 [ 0, %16 ], [ 0, %.thread.us ], [ 0, %17 ], [ 0, %.lr.ph43.split.us ], [ %spec.select.us, %22 ]
  %24 = mul nuw nsw i64 %indvars.iv59, %14
  %25 = trunc nuw i64 %24 to i32
  br label %26

26:                                               ; preds = %.lr.ph.us, %33
  %indvars.iv = phi i64 [ 0, %.lr.ph.us ], [ %indvars.iv.next, %33 ]
  %27 = add nuw nsw i64 %indvars.iv, %24
  %28 = trunc nuw i64 %27 to i32
  %29 = icmp sgt i32 %13, %28
  br i1 %29, label %33, label %.critedge.us

.critedge.us:                                     ; preds = %26, %33
  %indvars.iv.next60 = add nuw nsw i64 %indvars.iv59, 1
  %30 = load i8, ptr %4, align 1, !tbaa !61
  %31 = zext i8 %30 to i64
  %32 = icmp samesign ult i64 %indvars.iv.next60, %31
  br i1 %32, label %.lr.ph43.split.us, label %._crit_edge, !llvm.loop !133

33:                                               ; preds = %26
  %34 = add nuw nsw i64 %indvars.iv, %.0.us
  %35 = trunc nuw i64 %34 to i32
  %36 = srem i32 %35, %1
  %37 = add nsw i32 %36, %25
  %38 = trunc i32 %37 to i16
  %39 = getelementptr inbounds nuw i16, ptr %0, i64 %27
  store i16 %38, ptr %39, align 2, !tbaa !62
  %indvars.iv.next = add nuw nsw i64 %indvars.iv, 1
  %exitcond.not = icmp eq i64 %indvars.iv.next, %14
  br i1 %exitcond.not, label %.critedge.us, label %26, !llvm.loop !134

._crit_edge:                                      ; preds = %.critedge.us, %.lr.ph43, %6
  ret void
}